target datalayout = "e-m:e-p270:32:32-p271:32:32-p272:64:64-i64:64-i128:128-f80:128-n8:16:32:64-S128"
target triple = "x86_64-pc-linux-gnu"

; Function Attrs: nounwind uwtable
define ptr @Abc_NtkBddToAdd(ptr noundef %0, ptr noundef %1, i32 noundef %2) #0 {
  %4 = alloca ptr, align 8
  %5 = alloca ptr, align 8
  %6 = alloca i32, align 4
  %7 = alloca ptr, align 8
  %8 = alloca ptr, align 8
  %9 = alloca ptr, align 8
  %10 = alloca ptr, align 8
  %11 = alloca ptr, align 8
  store ptr %0, ptr %4, align 8
  store ptr %1, ptr %5, align 8
  store i32 %2, ptr %6, align 4
  %12 = call ptr @stmm_init_table(ptr noundef @st__ptrcmp, ptr noundef @st__ptrhash)
  store ptr %12, ptr %10, align 8
  %13 = load ptr, ptr %4, align 8
  %14 = load ptr, ptr %5, align 8
  %15 = ptrtoint ptr %14 to i64
  %16 = and i64 %15, -2
  %17 = inttoptr i64 %16 to ptr
  %18 = load i32, ptr %6, align 4
  %19 = load ptr, ptr %10, align 8
  %20 = load ptr, ptr %5, align 8
  %21 = ptrtoint ptr %20 to i64
  %22 = and i64 %21, 1
  %23 = trunc i64 %22 to i32
  %24 = call ptr @Abc_NtkBddToAdd_rec(ptr noundef %13, ptr noundef %17, i32 noundef %18, ptr noundef %19, i32 noundef %23)
  store ptr %24, ptr %7, align 8
  %25 = load ptr, ptr %10, align 8
  %26 = call ptr @stmm_init_gen(ptr noundef %25)
  store ptr %26, ptr %11, align 8
  br label %27

27:                                               ; preds = %35, %3
  %28 = load ptr, ptr %11, align 8
  %29 = call i32 @stmm_gen(ptr noundef %28, ptr noundef %9, ptr noundef %8)
  %30 = icmp ne i32 %29, 0
  br i1 %30, label %33, label %31

31:                                               ; preds = %27
  %32 = load ptr, ptr %11, align 8
  call void @stmm_free_gen(ptr noundef %32)
  br label %33

33:                                               ; preds = %31, %27
  %34 = phi i1 [ true, %27 ], [ false, %31 ]
  br i1 %34, label %35, label %38

35:                                               ; preds = %33
  %36 = load ptr, ptr %4, align 8
  %37 = load ptr, ptr %8, align 8
  call void @Cudd_RecursiveDeref(ptr noundef %36, ptr noundef %37)
  br label %27, !llvm.loop !48

38:                                               ; preds = %33
  %39 = load ptr, ptr %10, align 8
  call void @stmm_free_table(ptr noundef %39)
  %40 = load ptr, ptr %7, align 8
  call void @Cudd_Deref(ptr noundef %40)
  %41 = load ptr, ptr %7, align 8
  ret ptr %41
}