; Function Attrs: nounwind uwtable
define ptr @Abc_NtkBddToAdd(ptr noundef %0, ptr noundef %1, i32 noundef %2) local_unnamed_addr #0 {
  %4 = alloca ptr, align 8
  %5 = alloca ptr, align 8
  %6 = tail call ptr @stmm_init_table(ptr noundef nonnull @st__ptrcmp, ptr noundef nonnull @st__ptrhash) #18
  %7 = ptrtoint ptr %1 to i64
  %8 = and i64 %7, -2
  %9 = inttoptr i64 %8 to ptr
  %10 = trunc i64 %7 to i32
  %11 = and i32 %10, 1
  %12 = tail call ptr @Abc_NtkBddToAdd_rec(ptr noundef %0, ptr noundef %9, i32 noundef %2, ptr noundef %6, i32 noundef %11)
  %13 = tail call ptr @stmm_init_gen(ptr noundef %6) #18
  %14 = call i32 @stmm_gen(ptr noundef %13, ptr noundef nonnull %5, ptr noundef nonnull %4) #18
  %.not11 = icmp eq i32 %14, 0
  br i1 %.not11, label %._crit_edge, label %.critedge

._crit_edge:                                      ; preds = %.critedge, %3
  call void @stmm_free_gen(ptr noundef %13) #18
  call void @stmm_free_table(ptr noundef %6) #18
  call void @Cudd_Deref(ptr noundef %12) #18
  ret ptr %12

.critedge:                                        ; preds = %3, %.critedge
  %15 = load ptr, ptr %4, align 8
  call void @Cudd_RecursiveDeref(ptr noundef %0, ptr noundef %15) #18
  %16 = call i32 @stmm_gen(ptr noundef %13, ptr noundef nonnull %5, ptr noundef nonnull %4) #18
  %.not = icmp eq i32 %16, 0
  br i1 %.not, label %._crit_edge, label %.critedge, !llvm.loop !44
}